target datalayout = "e-m:e-p270:32:32-p271:32:32-p272:64:64-i64:64-i128:128-f80:128-n8:16:32:64-S128"
target triple = "x86_64-pc-linux-gnu"

; Function Attrs: nounwind null_pointer_is_valid sspstrong uwtable
define internal i32 @sid_buffer_hash_fn(ptr noundef %0) #2 {
  %2 = alloca ptr, align 8
  %3 = alloca i32, align 4
  %4 = alloca ptr, align 8
  %5 = alloca i16, align 2
  store ptr %0, ptr %2, align 8
  call void @llvm.lifetime.start.p0(i64 4, ptr %3) #19
  store i32 5381, ptr %3, align 4
  call void @llvm.lifetime.start.p0(i64 8, ptr %4) #19
  %6 = load ptr, ptr %2, align 8
  store ptr %6, ptr %4, align 8
  call void @llvm.lifetime.start.p0(i64 2, ptr %5) #19
  store i16 0, ptr %5, align 2
  br label %7

7:                                                ; preds = %27, %1
  %8 = load i16, ptr %5, align 2
  %9 = zext i16 %8 to i32
  %10 = load ptr, ptr %4, align 8
  %11 = getelementptr i8, ptr %10, i64 0
  %12 = load i8, ptr %11, align 1
  %13 = zext i8 %12 to i32
  %14 = icmp sle i32 %9, %13
  br i1 %14, label %15, label %30

15:                                               ; preds = %7
  %16 = load i32, ptr %3, align 4
  %17 = shl i32 %16, 5
  %18 = load i32, ptr %3, align 4
  %19 = add i32 %17, %18
  %20 = load ptr, ptr %4, align 8
  %21 = load i16, ptr %5, align 2
  %22 = zext i16 %21 to i64
  %23 = getelementptr i8, ptr %20, i64 %22
  %24 = load i8, ptr %23, align 1
  %25 = zext i8 %24 to i32
  %26 = add i32 %19, %25
  store i32 %26, ptr %3, align 4
  br label %27

27:                                               ; preds = %15
  %28 = load i16, ptr %5, align 2
  %29 = add i16 %28, 1
  store i16 %29, ptr %5, align 2
  br label %7, !llvm.loop !25

30:                                               ; preds = %7
  %31 = load i32, ptr %3, align 4
  call void @llvm.lifetime.end.p0(i64 2, ptr %5) #19
  call void @llvm.lifetime.end.p0(i64 8, ptr %4) #19
  call void @llvm.lifetime.end.p0(i64 4, ptr %3) #19
  ret i32 %31
}