; Function Attrs: nofree norecurse nosync nounwind null_pointer_is_valid sspstrong memory(argmem: read) uwtable
define internal i32 @sid_buffer_hash_fn(ptr noundef readonly captures(none) %0) #14 {
  %2 = load i8, ptr %0, align 1
  %3 = zext i8 %2 to i64
  br label %4

4:                                                ; preds = %1, %4
  %indvars.iv = phi i64 [ 0, %1 ], [ %indvars.iv.next, %4 ]
  %.089 = phi i32 [ 5381, %1 ], [ %9, %4 ]
  %5 = mul i32 %.089, 33
  %6 = getelementptr i8, ptr %0, i64 %indvars.iv
  %7 = load i8, ptr %6, align 1
  %8 = zext i8 %7 to i32
  %9 = add i32 %5, %8
  %indvars.iv.next = add nuw nsw i64 %indvars.iv, 1
  %exitcond.not = icmp eq i64 %indvars.iv, %3
  br i1 %exitcond.not, label %10, label %4, !llvm.loop !24

10:                                               ; preds = %4
  ret i32 %9
}